; Function Attrs: nounwind uwtable
define range(i32 -22, 1) i32 @ff_mjpeg_encode_check_pix_fmt(ptr noundef %0) local_unnamed_addr #0 {
  %2 = getelementptr inbounds nuw i8, ptr %0, i64 516
  %3 = load i32, ptr %2, align 4, !tbaa !66
  %4 = icmp sgt i32 %3, -1
  br i1 %4, label %5, label %14

5:                                                ; preds = %1
  %6 = getelementptr inbounds nuw i8, ptr %0, i64 156
  %7 = load i32, ptr %6, align 4, !tbaa !48
  %.not = icmp eq i32 %7, 2
  br i1 %.not, label %14, label %8

8:                                                ; preds = %5
  %9 = getelementptr inbounds nuw i8, ptr %0, i64 136
  %10 = load i32, ptr %9, align 8, !tbaa !31
  switch i32 %10, label %11 [
    i32 0, label %13
    i32 4, label %13
    i32 5, label %13
  ]

11:                                               ; preds = %8
  %12 = icmp eq i32 %7, 1
  br i1 %12, label %13, label %14

13:                                               ; preds = %8, %8, %8, %11
  tail call void (ptr, i32, ptr, ...) @av_log(ptr noundef nonnull %0, i32 noundef 16, ptr noundef nonnull @.str.4) #8
  br label %14

14:                                               ; preds = %1, %5, %11, %13
  %.0 = phi i32 [ -22, %13 ], [ 0, %11 ], [ 0, %5 ], [ 0, %1 ]
  ret i32 %.0
}